target datalayout = "e-m:e-p270:32:32-p271:32:32-p272:64:64-i64:64-i128:128-f80:128-n8:16:32:64-S128"
target triple = "x86_64-pc-linux-gnu"

%"class.cv::Affine3" = type { %"class.cv::Matx.0" }
%"class.cv::Matx.0" = type { [16 x float] }
%"class.cv::Point3_" = type { i32, i32, i32 }
%"class.cv::Point3_.1" = type { float, float, float }
%"class.cv::Vec.2" = type { %"class.cv::Matx.3" }
%"class.cv::Matx.3" = type { [4 x i32] }
%"class.cv::Vec.4" = type { %"class.cv::Matx.5" }
%"class.cv::Matx.5" = type { [8 x i32] }
%"class.cv::dynafu::TSDFVolume" = type <{ ptr, float, float, %"class.cv::Point3_", float, %"class.cv::Affine3", float, %"class.cv::Point3_.1", float, %"class.cv::Vec.2", %"class.cv::Vec.4", [4 x i8] }>
%"class.cv::Mat" = type { i32, i32, i32, i32, ptr, ptr, ptr, ptr, ptr, ptr, %"struct.cv::MatSize", %"struct.cv::MatStep" }
%"struct.cv::MatSize" = type { ptr }
%"struct.cv::MatStep" = type { ptr, [2 x i64] }
%"class.cv::dynafu::TSDFVolumeCPU" = type { %"class.cv::dynafu::TSDFVolume.base", %"class.cv::Mat" }
%"class.cv::dynafu::TSDFVolume.base" = type <{ ptr, float, float, %"class.cv::Point3_", float, %"class.cv::Affine3", float, %"class.cv::Point3_.1", float, %"class.cv::Vec.2", %"class.cv::Vec.4" }>
%"struct.cv::dynafu::Voxel" = type { float, float, %"struct.std::array", [10 x float], i32 }
%"struct.std::array" = type { [10 x i32] }

; Function Attrs: inlinehint mustprogress nounwind uwtable
define linkonce_odr hidden noundef ptr @_ZNK2cv3Mat3ptrINS_6dynafu5VoxelEEEPKT_i(ptr noundef nonnull align 8 dereferenceable(96) %0, i32 noundef %1) #8 comdat align 2 {
  %3 = alloca ptr, align 8
  %4 = alloca i32, align 4
  store ptr %0, ptr %3, align 8, !tbaa !63
  store i32 %1, ptr %4, align 4, !tbaa !12
  %5 = load ptr, ptr %3, align 8
  %6 = getelementptr inbounds nuw %"class.cv::Mat", ptr %5, i32 0, i32 4
  %7 = load ptr, ptr %6, align 8, !tbaa !186
  %8 = getelementptr inbounds nuw %"class.cv::Mat", ptr %5, i32 0, i32 11
  %9 = getelementptr inbounds nuw %"struct.cv::MatStep", ptr %8, i32 0, i32 0
  %10 = load ptr, ptr %9, align 8, !tbaa !187
  %11 = getelementptr inbounds i64, ptr %10, i64 0
  %12 = load i64, ptr %11, align 8, !tbaa !134
  %13 = load i32, ptr %4, align 4, !tbaa !12
  %14 = sext i32 %13 to i64
  %15 = mul i64 %12, %14
  %16 = getelementptr inbounds nuw i8, ptr %7, i64 %15
  ret ptr %16
}

; Function Attrs: inlinehint mustprogress nounwind uwtable
define linkonce_odr hidden noundef nonnull align 4 dereferenceable(4) ptr @_ZNK2cv3VecIiLi4EEixEi(ptr noundef nonnull align 4 dereferenceable(16) %0, i32 noundef %1) #8 comdat align 2 {
  %3 = alloca ptr, align 8
  %4 = alloca i32, align 4
  store ptr %0, ptr %3, align 8, !tbaa !46
  store i32 %1, ptr %4, align 4, !tbaa !12
  %5 = load ptr, ptr %3, align 8
  %6 = getelementptr inbounds nuw %"class.cv::Matx.3", ptr %5, i32 0, i32 0
  %7 = load i32, ptr %4, align 4, !tbaa !12
  %8 = sext i32 %7 to i64
  %9 = getelementptr inbounds [4 x i32], ptr %6, i64 0, i64 %8
  ret ptr %9
}

; Function Attrs: mustprogress uwtable
define hidden noundef nonnull align 4 dereferenceable(40) ptr @_ZNK2cv6dynafu13TSDFVolumeCPU18getVoxelNeighboursENS_7Point3_IiEERi(ptr noundef nonnull align 8 dereferenceable(264) %0, i64 %1, i32 %2, ptr noundef nonnull align 4 dereferenceable(4) %3) unnamed_addr #9 align 2 {
  %5 = alloca %"class.cv::Point3_", align 4
  %6 = alloca { i64, i32 }, align 4
  %7 = alloca ptr, align 8
  %8 = alloca ptr, align 8
  %9 = alloca i32, align 4
  %10 = alloca i32, align 4
  %11 = alloca i32, align 4
  %12 = alloca ptr, align 8
  %13 = getelementptr inbounds nuw { i64, i32 }, ptr %6, i32 0, i32 0
  store i64 %1, ptr %13, align 4
  %14 = getelementptr inbounds nuw { i64, i32 }, ptr %6, i32 0, i32 1
  store i32 %2, ptr %14, align 4
  call void @llvm.memcpy.p0.p0.i64(ptr align 4 %5, ptr align 4 %6, i64 12, i1 false)
  store ptr %0, ptr %7, align 8, !tbaa !61
  store ptr %3, ptr %8, align 8, !tbaa !177
  %15 = load ptr, ptr %7, align 8
  call void @llvm.lifetime.start.p0(i64 4, ptr %9) #3
  %16 = getelementptr inbounds nuw %"class.cv::Point3_", ptr %5, i32 0, i32 0
  %17 = load i32, ptr %16, align 4, !tbaa !52
  %18 = getelementptr inbounds nuw %"class.cv::dynafu::TSDFVolume", ptr %15, i32 0, i32 9
  %19 = call noundef nonnull align 4 dereferenceable(4) ptr @_ZNK2cv3VecIiLi4EEixEi(ptr noundef nonnull align 4 dereferenceable(16) %18, i32 noundef 0)
  %20 = load i32, ptr %19, align 4, !tbaa !12
  %21 = mul nsw i32 %17, %20
  store i32 %21, ptr %9, align 4, !tbaa !12
  call void @llvm.lifetime.start.p0(i64 4, ptr %10) #3
  %22 = load i32, ptr %9, align 4, !tbaa !12
  %23 = getelementptr inbounds nuw %"class.cv::Point3_", ptr %5, i32 0, i32 1
  %24 = load i32, ptr %23, align 4, !tbaa !53
  %25 = getelementptr inbounds nuw %"class.cv::dynafu::TSDFVolume", ptr %15, i32 0, i32 9
  %26 = call noundef nonnull align 4 dereferenceable(4) ptr @_ZNK2cv3VecIiLi4EEixEi(ptr noundef nonnull align 4 dereferenceable(16) %25, i32 noundef 1)
  %27 = load i32, ptr %26, align 4, !tbaa !12
  %28 = mul nsw i32 %24, %27
  %29 = add nsw i32 %22, %28
  store i32 %29, ptr %10, align 4, !tbaa !12
  call void @llvm.lifetime.start.p0(i64 4, ptr %11) #3
  %30 = load i32, ptr %10, align 4, !tbaa !12
  %31 = getelementptr inbounds nuw %"class.cv::Point3_", ptr %5, i32 0, i32 2
  %32 = load i32, ptr %31, align 4, !tbaa !54
  %33 = getelementptr inbounds nuw %"class.cv::dynafu::TSDFVolume", ptr %15, i32 0, i32 9
  %34 = call noundef nonnull align 4 dereferenceable(4) ptr @_ZNK2cv3VecIiLi4EEixEi(ptr noundef nonnull align 4 dereferenceable(16) %33, i32 noundef 2)
  %35 = load i32, ptr %34, align 4, !tbaa !12
  %36 = mul nsw i32 %32, %35
  %37 = add nsw i32 %30, %36
  store i32 %37, ptr %11, align 4, !tbaa !12
  call void @llvm.lifetime.start.p0(i64 8, ptr %12) #3
  %38 = getelementptr inbounds nuw %"class.cv::dynafu::TSDFVolumeCPU", ptr %15, i32 0, i32 1
  %39 = call noundef ptr @_ZNK2cv3Mat3ptrINS_6dynafu5VoxelEEEPKT_i(ptr noundef nonnull align 8 dereferenceable(96) %38, i32 noundef 0)
  %40 = load i32, ptr %11, align 4, !tbaa !12
  %41 = sext i32 %40 to i64
  %42 = getelementptr inbounds %"struct.cv::dynafu::Voxel", ptr %39, i64 %41
  store ptr %42, ptr %12, align 8, !tbaa !182
  %43 = load ptr, ptr %12, align 8, !tbaa !182
  %44 = getelementptr inbounds nuw %"struct.cv::dynafu::Voxel", ptr %43, i32 0, i32 4
  %45 = load i32, ptr %44, align 4, !tbaa !183
  %46 = load ptr, ptr %8, align 8, !tbaa !177
  store i32 %45, ptr %46, align 4, !tbaa !12
  %47 = load ptr, ptr %12, align 8, !tbaa !182
  %48 = getelementptr inbounds nuw %"struct.cv::dynafu::Voxel", ptr %47, i32 0, i32 2
  call void @llvm.lifetime.end.p0(i64 8, ptr %12) #3
  call void @llvm.lifetime.end.p0(i64 4, ptr %11) #3
  call void @llvm.lifetime.end.p0(i64 4, ptr %10) #3
  call void @llvm.lifetime.end.p0(i64 4, ptr %9) #3
  ret ptr %48
}