; Function Attrs: mustprogress nofree norecurse nosync nounwind willreturn memory(read, argmem: readwrite, inaccessiblemem: none) uwtable
define hidden noundef nonnull align 4 dereferenceable(40) ptr @_ZNK2cv6dynafu13TSDFVolumeCPU18getVoxelNeighboursENS_7Point3_IiEERi(ptr noundef nonnull readonly align 8 captures(none) dereferenceable(264) %0, i64 %1, i32 %2, ptr noundef nonnull writeonly align 4 captures(none) dereferenceable(4) initializes((0, 4)) %3) unnamed_addr #11 align 2 {
  %.sroa.06.0.extract.trunc = trunc i64 %1 to i32
  %.sroa.27.0.extract.shift = lshr i64 %1, 32
  %.sroa.27.0.extract.trunc = trunc nuw i64 %.sroa.27.0.extract.shift to i32
  %5 = getelementptr inbounds nuw i8, ptr %0, i64 116
  %6 = load i32, ptr %5, align 4, !tbaa !20
  %7 = mul nsw i32 %6, %.sroa.06.0.extract.trunc
  %8 = getelementptr inbounds nuw i8, ptr %0, i64 120
  %9 = load i32, ptr %8, align 8, !tbaa !20
  %10 = mul nsw i32 %9, %.sroa.27.0.extract.trunc
  %11 = add nsw i32 %10, %7
  %12 = getelementptr inbounds nuw i8, ptr %0, i64 124
  %13 = load i32, ptr %12, align 4, !tbaa !20
  %14 = mul nsw i32 %13, %2
  %15 = add nsw i32 %11, %14
  %16 = getelementptr inbounds nuw i8, ptr %0, i64 184
  %17 = load ptr, ptr %16, align 8, !tbaa !95
  %18 = sext i32 %15 to i64
  %19 = getelementptr inbounds %"struct.cv::dynafu::Voxel", ptr %17, i64 %18
  %20 = getelementptr inbounds nuw i8, ptr %19, i64 88
  %21 = load i32, ptr %20, align 4, !tbaa !188
  store i32 %21, ptr %3, align 4, !tbaa !20
  %22 = getelementptr inbounds nuw i8, ptr %19, i64 8
  ret ptr %22
}